target datalayout = "e-m:e-p270:32:32-p271:32:32-p272:64:64-i64:64-i128:128-f80:128-n8:16:32:64-S128"
target triple = "x86_64-pc-linux-gnu"

%struct.constant = type { ptr, i64 }
%struct.termiosmodulestate = type { ptr }

@.str.21 = private unnamed_addr constant [14 x i8] c"termios.error\00", align 1
@.str.22 = private unnamed_addr constant [6 x i8] c"error\00", align 1
@.str.23 = private unnamed_addr constant [4 x i8] c"TIO\00", align 1

; Function Attrs: inlinehint nounwind uwtable
define internal ptr @get_termios_state(ptr noundef %0) #5 {
  %2 = alloca ptr, align 8
  %3 = alloca ptr, align 8
  store ptr %0, ptr %2, align 8, !tbaa !3
  call void @llvm.lifetime.start.p0(i64 8, ptr %3) #7
  %4 = load ptr, ptr %2, align 8, !tbaa !3
  %5 = call ptr @PyModule_GetState(ptr noundef %4)
  store ptr %5, ptr %3, align 8, !tbaa !8
  %6 = load ptr, ptr %3, align 8, !tbaa !8
  call void @llvm.lifetime.end.p0(i64 8, ptr %3) #7
  ret ptr %6
}

; Function Attrs: nounwind uwtable
define internal i32 @termios_exec(ptr noundef %0) #0 {
  %2 = alloca i32, align 4
  %3 = alloca ptr, align 8
  %4 = alloca ptr, align 8
  %5 = alloca ptr, align 8
  %6 = alloca i32, align 4
  %7 = alloca i32, align 4
  store ptr %0, ptr %3, align 8, !tbaa !3
  call void @llvm.lifetime.start.p0(i64 8, ptr %4) #7
  store ptr @termios_constants, ptr %4, align 8, !tbaa !36
  call void @llvm.lifetime.start.p0(i64 8, ptr %5) #7
  %8 = load ptr, ptr %3, align 8, !tbaa !3
  %9 = call ptr @get_termios_state(ptr noundef %8)
  store ptr %9, ptr %5, align 8, !tbaa !8
  %10 = call ptr @PyErr_NewException(ptr noundef @.str.21, ptr noundef null, ptr noundef null)
  %11 = load ptr, ptr %5, align 8, !tbaa !8
  %12 = getelementptr inbounds nuw %struct.termiosmodulestate, ptr %11, i32 0, i32 0
  store ptr %10, ptr %12, align 8, !tbaa !9
  %13 = load ptr, ptr %3, align 8, !tbaa !3
  %14 = load ptr, ptr %5, align 8, !tbaa !8
  %15 = getelementptr inbounds nuw %struct.termiosmodulestate, ptr %14, i32 0, i32 0
  %16 = load ptr, ptr %15, align 8, !tbaa !9
  %17 = call i32 @PyModule_AddObjectRef(ptr noundef %13, ptr noundef @.str.22, ptr noundef %16)
  %18 = icmp slt i32 %17, 0
  br i1 %18, label %19, label %20

19:                                               ; preds = %1
  store i32 -1, ptr %2, align 4
  store i32 1, ptr %6, align 4
  br label %68

20:                                               ; preds = %1
  br label %21

21:                                               ; preds = %64, %20
  %22 = load ptr, ptr %4, align 8, !tbaa !36
  %23 = getelementptr inbounds nuw %struct.constant, ptr %22, i32 0, i32 0
  %24 = load ptr, ptr %23, align 8, !tbaa !38
  %25 = icmp ne ptr %24, null
  br i1 %25, label %26, label %67

26:                                               ; preds = %21
  %27 = load ptr, ptr %4, align 8, !tbaa !36
  %28 = getelementptr inbounds nuw %struct.constant, ptr %27, i32 0, i32 0
  %29 = load ptr, ptr %28, align 8, !tbaa !38
  %30 = call i32 @strncmp(ptr noundef %29, ptr noundef @.str.23, i64 noundef 3) #8
  %31 = icmp eq i32 %30, 0
  br i1 %31, label %32, label %52

32:                                               ; preds = %26
  call void @llvm.lifetime.start.p0(i64 4, ptr %7) #7
  %33 = load ptr, ptr %4, align 8, !tbaa !36
  %34 = getelementptr inbounds nuw %struct.constant, ptr %33, i32 0, i32 1
  %35 = load i64, ptr %34, align 8, !tbaa !41
  %36 = and i64 %35, 4294967295
  %37 = trunc i64 %36 to i32
  store i32 %37, ptr %7, align 4, !tbaa !11
  %38 = load ptr, ptr %3, align 8, !tbaa !3
  %39 = load ptr, ptr %4, align 8, !tbaa !36
  %40 = getelementptr inbounds nuw %struct.constant, ptr %39, i32 0, i32 0
  %41 = load ptr, ptr %40, align 8, !tbaa !38
  %42 = load i32, ptr %7, align 4, !tbaa !11
  %43 = zext i32 %42 to i64
  %44 = call ptr @PyLong_FromUnsignedLong(i64 noundef %43)
  %45 = call i32 @PyModule_Add(ptr noundef %38, ptr noundef %41, ptr noundef %44)
  %46 = icmp slt i32 %45, 0
  br i1 %46, label %47, label %48

47:                                               ; preds = %32
  store i32 -1, ptr %2, align 4
  store i32 1, ptr %6, align 4
  br label %49

48:                                               ; preds = %32
  store i32 0, ptr %6, align 4
  br label %49

49:                                               ; preds = %48, %47
  call void @llvm.lifetime.end.p0(i64 4, ptr %7) #7
  %50 = load i32, ptr %6, align 4
  switch i32 %50, label %68 [
    i32 0, label %51
  ]

51:                                               ; preds = %49
  br label %64

52:                                               ; preds = %26
  %53 = load ptr, ptr %3, align 8, !tbaa !3
  %54 = load ptr, ptr %4, align 8, !tbaa !36
  %55 = getelementptr inbounds nuw %struct.constant, ptr %54, i32 0, i32 0
  %56 = load ptr, ptr %55, align 8, !tbaa !38
  %57 = load ptr, ptr %4, align 8, !tbaa !36
  %58 = getelementptr inbounds nuw %struct.constant, ptr %57, i32 0, i32 1
  %59 = load i64, ptr %58, align 8, !tbaa !41
  %60 = call i32 @PyModule_AddIntConstant(ptr noundef %53, ptr noundef %56, i64 noundef %59)
  %61 = icmp slt i32 %60, 0
  br i1 %61, label %62, label %63

62:                                               ; preds = %52
  store i32 -1, ptr %2, align 4
  store i32 1, ptr %6, align 4
  br label %68

63:                                               ; preds = %52
  br label %64

64:                                               ; preds = %63, %51
  %65 = load ptr, ptr %4, align 8, !tbaa !36
  %66 = getelementptr %struct.constant, ptr %65, i32 1
  store ptr %66, ptr %4, align 8, !tbaa !36
  br label %21, !llvm.loop !42

67:                                               ; preds = %21
  store i32 0, ptr %2, align 4
  store i32 1, ptr %6, align 4
  br label %68

68:                                               ; preds = %67, %62, %49, %19
  call void @llvm.lifetime.end.p0(i64 8, ptr %5) #7
  call void @llvm.lifetime.end.p0(i64 8, ptr %4) #7
  %69 = load i32, ptr %2, align 4
  ret i32 %69
}