; Function Attrs: nounwind uwtable
define internal range(i32 -1, 1) i32 @termios_exec(ptr noundef %0) #0 {
  %2 = tail call ptr @PyModule_GetState(ptr noundef %0) #5
  %3 = tail call ptr @PyErr_NewException(ptr noundef nonnull @.str.21, ptr noundef null, ptr noundef null) #5
  store ptr %3, ptr %2, align 8, !tbaa !3
  %4 = tail call i32 @PyModule_AddObjectRef(ptr noundef %0, ptr noundef nonnull @.str.22, ptr noundef %3) #5
  %5 = icmp slt i32 %4, 0
  br i1 %5, label %.loopexit, label %sub_0

sub_0:                                            ; preds = %1, %24
  %6 = phi ptr [ %26, %24 ], [ @.str.24, %1 ]
  %.01618 = phi ptr [ %25, %24 ], [ @termios_constants, %1 ]
  %7 = load i8, ptr %6, align 1
  %.not19 = icmp eq i8 %7, 84
  br i1 %.not19, label %sub_1, label %.tail.thread

sub_1:                                            ; preds = %sub_0
  %8 = getelementptr inbounds nuw i8, ptr %6, i64 1
  %9 = load i8, ptr %8, align 1
  %.not20 = icmp eq i8 %9, 73
  br i1 %.not20, label %.tail, label %.tail.thread

.tail:                                            ; preds = %sub_1
  %10 = getelementptr inbounds nuw i8, ptr %6, i64 2
  %11 = load i8, ptr %10, align 1
  %12 = icmp eq i8 %11, 79
  br i1 %12, label %13, label %.tail.thread

13:                                               ; preds = %.tail
  %14 = getelementptr inbounds nuw i8, ptr %.01618, i64 8
  %15 = load i64, ptr %14, align 8, !tbaa !27
  %16 = and i64 %15, 4294967295
  %17 = tail call ptr @PyLong_FromUnsignedLong(i64 noundef %16) #5
  %18 = tail call i32 @PyModule_Add(ptr noundef %0, ptr noundef nonnull %6, ptr noundef %17) #5
  %19 = icmp sgt i32 %18, -1
  br i1 %19, label %24, label %.loopexit

.tail.thread:                                     ; preds = %sub_1, %sub_0, %.tail
  %20 = getelementptr inbounds nuw i8, ptr %.01618, i64 8
  %21 = load i64, ptr %20, align 8, !tbaa !27
  %22 = tail call i32 @PyModule_AddIntConstant(ptr noundef %0, ptr noundef nonnull %6, i64 noundef %21) #5
  %23 = icmp slt i32 %22, 0
  br i1 %23, label %.loopexit, label %24

24:                                               ; preds = %.tail.thread, %13
  %25 = getelementptr i8, ptr %.01618, i64 16
  %26 = load ptr, ptr %25, align 8, !tbaa !31
  %.not = icmp eq ptr %26, null
  br i1 %.not, label %.loopexit, label %sub_0, !llvm.loop !32

.loopexit:                                        ; preds = %24, %.tail.thread, %13, %1
  %.0 = phi i32 [ -1, %1 ], [ 0, %24 ], [ -1, %.tail.thread ], [ -1, %13 ]
  ret i32 %.0
}